target datalayout = "e-m:e-p270:32:32-p271:32:32-p272:64:64-i64:64-i128:128-f80:128-n8:16:32:64-S128"
target triple = "x86_64-unknown-linux-gnu"

%"class.boost::detail::shared_count" = type { ptr }
%"class.QuantLib::Handle" = type { %"class.boost::shared_ptr.50" }
%"class.boost::shared_ptr.50" = type { ptr, %"class.boost::detail::shared_count" }
%"class.std::vector.35" = type { %"struct.std::_Vector_base.36" }
%"struct.std::_Vector_base.36" = type { %"struct.std::_Vector_base<double, std::allocator<double>>::_Vector_impl" }
%"struct.std::_Vector_base<double, std::allocator<double>>::_Vector_impl" = type { %"struct.std::_Vector_base<double, std::allocator<double>>::_Vector_impl_data" }
%"struct.std::_Vector_base<double, std::allocator<double>>::_Vector_impl_data" = type { ptr, ptr, ptr }
%"class.QuantLib::GFunction" = type { ptr }
%"class.boost::shared_ptr.91" = type { ptr, %"class.boost::detail::shared_count" }
%"class.QuantLib::GFunctionFactory::GFunctionWithShifts" = type { %"class.QuantLib::GFunction", double, double, %"class.std::vector.35", %"class.std::vector.35", %"class.std::vector.35", double, double, double, %"class.QuantLib::Handle", double, double, double, %"class.boost::shared_ptr.91" }
%"class.QuantLib::GFunctionFactory::GFunctionWithShifts::ObjectiveFunction" = type { ptr, ptr, double, double }
%"class.__gnu_cxx::__normal_iterator.154" = type { ptr }

; Function Attrs: mustprogress nounwind uwtable
define linkonce_odr void @_ZN9__gnu_cxx17__normal_iteratorIPKdSt6vectorIdSaIdEEEC2ERKS2_(ptr noundef nonnull align 8 dereferenceable(8) %this, ptr noundef nonnull align 8 dereferenceable(8) %__i) unnamed_addr #1 comdat align 2 {
entry:
  %this.addr = alloca ptr, align 8
  %__i.addr = alloca ptr, align 8
  store ptr %this, ptr %this.addr, align 8, !tbaa !3
  store ptr %__i, ptr %__i.addr, align 8, !tbaa !3
  %this1 = load ptr, ptr %this.addr, align 8
  %_M_current = getelementptr inbounds nuw %"class.__gnu_cxx::__normal_iterator.154", ptr %this1, i32 0, i32 0
  %0 = load ptr, ptr %__i.addr, align 8, !tbaa !3
  %1 = load ptr, ptr %0, align 8, !tbaa !3
  store ptr %1, ptr %_M_current, align 8, !tbaa !243
  ret void
}

; Function Attrs: mustprogress nounwind uwtable
define linkonce_odr noundef nonnull align 8 dereferenceable(8) ptr @_ZNK9__gnu_cxx17__normal_iteratorIPKdSt6vectorIdSaIdEEEdeEv(ptr noundef nonnull align 8 dereferenceable(8) %this) #1 comdat align 2 {
entry:
  %this.addr = alloca ptr, align 8
  store ptr %this, ptr %this.addr, align 8, !tbaa !3
  %this1 = load ptr, ptr %this.addr, align 8
  %_M_current = getelementptr inbounds nuw %"class.__gnu_cxx::__normal_iterator.154", ptr %this1, i32 0, i32 0
  %0 = load ptr, ptr %_M_current, align 8, !tbaa !243
  ret ptr %0
}

; Function Attrs: mustprogress nounwind uwtable
define linkonce_odr ptr @_ZNK9__gnu_cxx17__normal_iteratorIPKdSt6vectorIdSaIdEEEmiEl(ptr noundef nonnull align 8 dereferenceable(8) %this, i64 noundef %__n) #1 comdat align 2 {
entry:
  %retval = alloca %"class.__gnu_cxx::__normal_iterator.154", align 8
  %this.addr = alloca ptr, align 8
  %__n.addr = alloca i64, align 8
  %ref.tmp = alloca ptr, align 8
  store ptr %this, ptr %this.addr, align 8, !tbaa !3
  store i64 %__n, ptr %__n.addr, align 8, !tbaa !30
  %this1 = load ptr, ptr %this.addr, align 8
  call void @llvm.lifetime.start.p0(i64 8, ptr %ref.tmp) #18
  %_M_current = getelementptr inbounds nuw %"class.__gnu_cxx::__normal_iterator.154", ptr %this1, i32 0, i32 0
  %0 = load ptr, ptr %_M_current, align 8, !tbaa !243
  %1 = load i64, ptr %__n.addr, align 8, !tbaa !30
  %idx.neg = sub i64 0, %1
  %add.ptr = getelementptr inbounds double, ptr %0, i64 %idx.neg
  store ptr %add.ptr, ptr %ref.tmp, align 8, !tbaa !3
  call void @_ZN9__gnu_cxx17__normal_iteratorIPKdSt6vectorIdSaIdEEEC2ERKS2_(ptr noundef nonnull align 8 dereferenceable(8) %retval, ptr noundef nonnull align 8 dereferenceable(8) %ref.tmp) #18
  call void @llvm.lifetime.end.p0(i64 8, ptr %ref.tmp) #18
  %coerce.dive = getelementptr inbounds nuw %"class.__gnu_cxx::__normal_iterator.154", ptr %retval, i32 0, i32 0
  %2 = load ptr, ptr %coerce.dive, align 8
  ret ptr %2
}

; Function Attrs: mustprogress nounwind uwtable
define linkonce_odr ptr @_ZNKSt6vectorIdSaIdEE3endEv(ptr noundef nonnull align 8 dereferenceable(24) %this) #1 comdat align 2 {
entry:
  %retval = alloca %"class.__gnu_cxx::__normal_iterator.154", align 8
  %this.addr = alloca ptr, align 8
  store ptr %this, ptr %this.addr, align 8, !tbaa !3
  %this1 = load ptr, ptr %this.addr, align 8
  %_M_impl = getelementptr inbounds nuw %"struct.std::_Vector_base.36", ptr %this1, i32 0, i32 0
  %_M_finish = getelementptr inbounds nuw %"struct.std::_Vector_base<double, std::allocator<double>>::_Vector_impl_data", ptr %_M_impl, i32 0, i32 1
  call void @_ZN9__gnu_cxx17__normal_iteratorIPKdSt6vectorIdSaIdEEEC2ERKS2_(ptr noundef nonnull align 8 dereferenceable(8) %retval, ptr noundef nonnull align 8 dereferenceable(8) %_M_finish) #18
  %coerce.dive = getelementptr inbounds nuw %"class.__gnu_cxx::__normal_iterator.154", ptr %retval, i32 0, i32 0
  %0 = load ptr, ptr %coerce.dive, align 8
  ret ptr %0
}

; Function Attrs: mustprogress nounwind uwtable
define linkonce_odr noundef nonnull align 8 dereferenceable(8) ptr @_ZNKSt6vectorIdSaIdEE4backEv(ptr noundef nonnull align 8 dereferenceable(24) %this) #1 comdat align 2 {
entry:
  %this.addr = alloca ptr, align 8
  %ref.tmp = alloca %"class.__gnu_cxx::__normal_iterator.154", align 8
  %ref.tmp2 = alloca %"class.__gnu_cxx::__normal_iterator.154", align 8
  store ptr %this, ptr %this.addr, align 8, !tbaa !3
  %this1 = load ptr, ptr %this.addr, align 8
  call void @llvm.lifetime.start.p0(i64 8, ptr %ref.tmp) #18
  call void @llvm.lifetime.start.p0(i64 8, ptr %ref.tmp2) #18
  %call = call ptr @_ZNKSt6vectorIdSaIdEE3endEv(ptr noundef nonnull align 8 dereferenceable(24) %this1) #18
  %coerce.dive = getelementptr inbounds nuw %"class.__gnu_cxx::__normal_iterator.154", ptr %ref.tmp2, i32 0, i32 0
  store ptr %call, ptr %coerce.dive, align 8
  %call3 = call ptr @_ZNK9__gnu_cxx17__normal_iteratorIPKdSt6vectorIdSaIdEEEmiEl(ptr noundef nonnull align 8 dereferenceable(8) %ref.tmp2, i64 noundef 1) #18
  %coerce.dive4 = getelementptr inbounds nuw %"class.__gnu_cxx::__normal_iterator.154", ptr %ref.tmp, i32 0, i32 0
  store ptr %call3, ptr %coerce.dive4, align 8
  %call5 = call noundef nonnull align 8 dereferenceable(8) ptr @_ZNK9__gnu_cxx17__normal_iteratorIPKdSt6vectorIdSaIdEEEdeEv(ptr noundef nonnull align 8 dereferenceable(8) %ref.tmp) #18
  call void @llvm.lifetime.end.p0(i64 8, ptr %ref.tmp2) #18
  call void @llvm.lifetime.end.p0(i64 8, ptr %ref.tmp) #18
  ret ptr %call5
}

; Function Attrs: mustprogress nounwind uwtable
define linkonce_odr noundef nonnull align 8 dereferenceable(8) ptr @_ZNKSt6vectorIdSaIdEEixEm(ptr noundef nonnull align 8 dereferenceable(24) %this, i64 noundef %__n) #1 comdat align 2 {
entry:
  %this.addr = alloca ptr, align 8
  %__n.addr = alloca i64, align 8
  store ptr %this, ptr %this.addr, align 8, !tbaa !3
  store i64 %__n, ptr %__n.addr, align 8, !tbaa !30
  %this1 = load ptr, ptr %this.addr, align 8
  %_M_impl = getelementptr inbounds nuw %"struct.std::_Vector_base.36", ptr %this1, i32 0, i32 0
  %_M_start = getelementptr inbounds nuw %"struct.std::_Vector_base<double, std::allocator<double>>::_Vector_impl_data", ptr %_M_impl, i32 0, i32 0
  %0 = load ptr, ptr %_M_start, align 8, !tbaa !136
  %1 = load i64, ptr %__n.addr, align 8, !tbaa !30
  %add.ptr = getelementptr inbounds nuw double, ptr %0, i64 %1
  ret ptr %add.ptr
}

; Function Attrs: mustprogress nounwind uwtable
define linkonce_odr noundef i64 @_ZNKSt6vectorIdSaIdEE4sizeEv(ptr noundef nonnull align 8 dereferenceable(24) %this) #1 comdat align 2 {
entry:
  %this.addr = alloca ptr, align 8
  store ptr %this, ptr %this.addr, align 8, !tbaa !3
  %this1 = load ptr, ptr %this.addr, align 8
  %_M_impl = getelementptr inbounds nuw %"struct.std::_Vector_base.36", ptr %this1, i32 0, i32 0
  %_M_finish = getelementptr inbounds nuw %"struct.std::_Vector_base<double, std::allocator<double>>::_Vector_impl_data", ptr %_M_impl, i32 0, i32 1
  %0 = load ptr, ptr %_M_finish, align 8, !tbaa !137
  %_M_impl2 = getelementptr inbounds nuw %"struct.std::_Vector_base.36", ptr %this1, i32 0, i32 0
  %_M_start = getelementptr inbounds nuw %"struct.std::_Vector_base<double, std::allocator<double>>::_Vector_impl_data", ptr %_M_impl2, i32 0, i32 0
  %1 = load ptr, ptr %_M_start, align 8, !tbaa !136
  %sub.ptr.lhs.cast = ptrtoint ptr %0 to i64
  %sub.ptr.rhs.cast = ptrtoint ptr %1 to i64
  %sub.ptr.sub = sub i64 %sub.ptr.lhs.cast, %sub.ptr.rhs.cast
  %sub.ptr.div = sdiv exact i64 %sub.ptr.sub, 8
  ret i64 %sub.ptr.div
}

; Function Attrs: mustprogress nounwind uwtable
define noundef double @_ZNK8QuantLib16GFunctionFactory19GFunctionWithShifts17ObjectiveFunctionclERKd(ptr noundef nonnull align 8 dereferenceable(32) %this, ptr noundef nonnull align 8 dereferenceable(8) %x) unnamed_addr #1 align 2 {
entry:
  %this.addr = alloca ptr, align 8
  %x.addr = alloca ptr, align 8
  %result = alloca double, align 8
  %i = alloca i64, align 8
  %temp = alloca double, align 8
  %temp21 = alloca double, align 8
  store ptr %this, ptr %this.addr, align 8, !tbaa !3
  store ptr %x, ptr %x.addr, align 8, !tbaa !3
  %this1 = load ptr, ptr %this.addr, align 8
  call void @llvm.lifetime.start.p0(i64 8, ptr %result) #18
  store double 0.000000e+00, ptr %result, align 8, !tbaa !18
  %derivative_ = getelementptr inbounds nuw %"class.QuantLib::GFunctionFactory::GFunctionWithShifts::ObjectiveFunction", ptr %this1, i32 0, i32 3
  store double 0.000000e+00, ptr %derivative_, align 8, !tbaa !158
  call void @llvm.lifetime.start.p0(i64 8, ptr %i) #18
  store i64 0, ptr %i, align 8, !tbaa !30
  br label %for.cond

for.cond:                                         ; preds = %for.inc, %entry
  %0 = load i64, ptr %i, align 8, !tbaa !30
  %o_ = getelementptr inbounds nuw %"class.QuantLib::GFunctionFactory::GFunctionWithShifts::ObjectiveFunction", ptr %this1, i32 0, i32 1
  %1 = load ptr, ptr %o_, align 8, !tbaa !160
  %accruals_ = getelementptr inbounds nuw %"class.QuantLib::GFunctionFactory::GFunctionWithShifts", ptr %1, i32 0, i32 4
  %call = call noundef i64 @_ZNKSt6vectorIdSaIdEE4sizeEv(ptr noundef nonnull align 8 dereferenceable(24) %accruals_) #18
  %cmp = icmp ult i64 %0, %call
  br i1 %cmp, label %for.body, label %for.cond.cleanup

for.cond.cleanup:                                 ; preds = %for.cond
  call void @llvm.lifetime.end.p0(i64 8, ptr %i) #18
  br label %for.end

for.body:                                         ; preds = %for.cond
  call void @llvm.lifetime.start.p0(i64 8, ptr %temp) #18
  %o_2 = getelementptr inbounds nuw %"class.QuantLib::GFunctionFactory::GFunctionWithShifts::ObjectiveFunction", ptr %this1, i32 0, i32 1
  %2 = load ptr, ptr %o_2, align 8, !tbaa !160
  %accruals_3 = getelementptr inbounds nuw %"class.QuantLib::GFunctionFactory::GFunctionWithShifts", ptr %2, i32 0, i32 4
  %3 = load i64, ptr %i, align 8, !tbaa !30
  %call4 = call noundef nonnull align 8 dereferenceable(8) ptr @_ZNKSt6vectorIdSaIdEEixEm(ptr noundef nonnull align 8 dereferenceable(24) %accruals_3, i64 noundef %3) #18
  %4 = load double, ptr %call4, align 8, !tbaa !18
  %o_5 = getelementptr inbounds nuw %"class.QuantLib::GFunctionFactory::GFunctionWithShifts::ObjectiveFunction", ptr %this1, i32 0, i32 1
  %5 = load ptr, ptr %o_5, align 8, !tbaa !160
  %swapPaymentDiscounts_ = getelementptr inbounds nuw %"class.QuantLib::GFunctionFactory::GFunctionWithShifts", ptr %5, i32 0, i32 5
  %6 = load i64, ptr %i, align 8, !tbaa !30
  %call6 = call noundef nonnull align 8 dereferenceable(8) ptr @_ZNKSt6vectorIdSaIdEEixEm(ptr noundef nonnull align 8 dereferenceable(24) %swapPaymentDiscounts_, i64 noundef %6) #18
  %7 = load double, ptr %call6, align 8, !tbaa !18
  %mul = fmul double %4, %7
  %o_7 = getelementptr inbounds nuw %"class.QuantLib::GFunctionFactory::GFunctionWithShifts::ObjectiveFunction", ptr %this1, i32 0, i32 1
  %8 = load ptr, ptr %o_7, align 8, !tbaa !160
  %shapedSwapPaymentTimes_ = getelementptr inbounds nuw %"class.QuantLib::GFunctionFactory::GFunctionWithShifts", ptr %8, i32 0, i32 3
  %9 = load i64, ptr %i, align 8, !tbaa !30
  %call8 = call noundef nonnull align 8 dereferenceable(8) ptr @_ZNKSt6vectorIdSaIdEEixEm(ptr noundef nonnull align 8 dereferenceable(24) %shapedSwapPaymentTimes_, i64 noundef %9) #18
  %10 = load double, ptr %call8, align 8, !tbaa !18
  %fneg = fneg double %10
  %11 = load ptr, ptr %x.addr, align 8, !tbaa !3
  %12 = load double, ptr %11, align 8, !tbaa !18
  %mul9 = fmul double %fneg, %12
  %call10 = call double @exp(double noundef %mul9) #18, !tbaa !32
  %mul11 = fmul double %mul, %call10
  store double %mul11, ptr %temp, align 8, !tbaa !18
  %13 = load double, ptr %temp, align 8, !tbaa !18
  %14 = load double, ptr %result, align 8, !tbaa !18
  %add = fadd double %14, %13
  store double %add, ptr %result, align 8, !tbaa !18
  %o_12 = getelementptr inbounds nuw %"class.QuantLib::GFunctionFactory::GFunctionWithShifts::ObjectiveFunction", ptr %this1, i32 0, i32 1
  %15 = load ptr, ptr %o_12, align 8, !tbaa !160
  %shapedSwapPaymentTimes_13 = getelementptr inbounds nuw %"class.QuantLib::GFunctionFactory::GFunctionWithShifts", ptr %15, i32 0, i32 3
  %16 = load i64, ptr %i, align 8, !tbaa !30
  %call14 = call noundef nonnull align 8 dereferenceable(8) ptr @_ZNKSt6vectorIdSaIdEEixEm(ptr noundef nonnull align 8 dereferenceable(24) %shapedSwapPaymentTimes_13, i64 noundef %16) #18
  %17 = load double, ptr %call14, align 8, !tbaa !18
  %18 = load double, ptr %temp, align 8, !tbaa !18
  %derivative_16 = getelementptr inbounds nuw %"class.QuantLib::GFunctionFactory::GFunctionWithShifts::ObjectiveFunction", ptr %this1, i32 0, i32 3
  %19 = load double, ptr %derivative_16, align 8, !tbaa !158
  %neg = fneg double %17
  %20 = call double @llvm.fmuladd.f64(double %neg, double %18, double %19)
  store double %20, ptr %derivative_16, align 8, !tbaa !158
  call void @llvm.lifetime.end.p0(i64 8, ptr %temp) #18
  br label %for.inc

for.inc:                                          ; preds = %for.body
  %21 = load i64, ptr %i, align 8, !tbaa !30
  %inc = add i64 %21, 1
  store i64 %inc, ptr %i, align 8, !tbaa !30
  br label %for.cond, !llvm.loop !161

for.end:                                          ; preds = %for.cond.cleanup
  %Rs_ = getelementptr inbounds nuw %"class.QuantLib::GFunctionFactory::GFunctionWithShifts::ObjectiveFunction", ptr %this1, i32 0, i32 2
  %22 = load double, ptr %Rs_, align 8, !tbaa !162
  %23 = load double, ptr %result, align 8, !tbaa !18
  %mul17 = fmul double %23, %22
  store double %mul17, ptr %result, align 8, !tbaa !18
  %Rs_18 = getelementptr inbounds nuw %"class.QuantLib::GFunctionFactory::GFunctionWithShifts::ObjectiveFunction", ptr %this1, i32 0, i32 2
  %24 = load double, ptr %Rs_18, align 8, !tbaa !162
  %derivative_19 = getelementptr inbounds nuw %"class.QuantLib::GFunctionFactory::GFunctionWithShifts::ObjectiveFunction", ptr %this1, i32 0, i32 3
  %25 = load double, ptr %derivative_19, align 8, !tbaa !158
  %mul20 = fmul double %25, %24
  store double %mul20, ptr %derivative_19, align 8, !tbaa !158
  call void @llvm.lifetime.start.p0(i64 8, ptr %temp21) #18
  %o_22 = getelementptr inbounds nuw %"class.QuantLib::GFunctionFactory::GFunctionWithShifts::ObjectiveFunction", ptr %this1, i32 0, i32 1
  %26 = load ptr, ptr %o_22, align 8, !tbaa !160
  %swapPaymentDiscounts_23 = getelementptr inbounds nuw %"class.QuantLib::GFunctionFactory::GFunctionWithShifts", ptr %26, i32 0, i32 5
  %call24 = call noundef nonnull align 8 dereferenceable(8) ptr @_ZNKSt6vectorIdSaIdEE4backEv(ptr noundef nonnull align 8 dereferenceable(24) %swapPaymentDiscounts_23) #18
  %27 = load double, ptr %call24, align 8, !tbaa !18
  %o_25 = getelementptr inbounds nuw %"class.QuantLib::GFunctionFactory::GFunctionWithShifts::ObjectiveFunction", ptr %this1, i32 0, i32 1
  %28 = load ptr, ptr %o_25, align 8, !tbaa !160
  %shapedSwapPaymentTimes_26 = getelementptr inbounds nuw %"class.QuantLib::GFunctionFactory::GFunctionWithShifts", ptr %28, i32 0, i32 3
  %call27 = call noundef nonnull align 8 dereferenceable(8) ptr @_ZNKSt6vectorIdSaIdEE4backEv(ptr noundef nonnull align 8 dereferenceable(24) %shapedSwapPaymentTimes_26) #18
  %29 = load double, ptr %call27, align 8, !tbaa !18
  %fneg28 = fneg double %29
  %30 = load ptr, ptr %x.addr, align 8, !tbaa !3
  %31 = load double, ptr %30, align 8, !tbaa !18
  %mul29 = fmul double %fneg28, %31
  %call30 = call double @exp(double noundef %mul29) #18, !tbaa !32
  %mul31 = fmul double %27, %call30
  store double %mul31, ptr %temp21, align 8, !tbaa !18
  %32 = load double, ptr %temp21, align 8, !tbaa !18
  %o_32 = getelementptr inbounds nuw %"class.QuantLib::GFunctionFactory::GFunctionWithShifts::ObjectiveFunction", ptr %this1, i32 0, i32 1
  %33 = load ptr, ptr %o_32, align 8, !tbaa !160
  %discountAtStart_ = getelementptr inbounds nuw %"class.QuantLib::GFunctionFactory::GFunctionWithShifts", ptr %33, i32 0, i32 6
  %34 = load double, ptr %discountAtStart_, align 8, !tbaa !150
  %sub = fsub double %32, %34
  %35 = load double, ptr %result, align 8, !tbaa !18
  %add33 = fadd double %35, %sub
  store double %add33, ptr %result, align 8, !tbaa !18
  %o_34 = getelementptr inbounds nuw %"class.QuantLib::GFunctionFactory::GFunctionWithShifts::ObjectiveFunction", ptr %this1, i32 0, i32 1
  %36 = load ptr, ptr %o_34, align 8, !tbaa !160
  %shapedSwapPaymentTimes_35 = getelementptr inbounds nuw %"class.QuantLib::GFunctionFactory::GFunctionWithShifts", ptr %36, i32 0, i32 3
  %call36 = call noundef nonnull align 8 dereferenceable(8) ptr @_ZNKSt6vectorIdSaIdEE4backEv(ptr noundef nonnull align 8 dereferenceable(24) %shapedSwapPaymentTimes_35) #18
  %37 = load double, ptr %call36, align 8, !tbaa !18
  %38 = load double, ptr %temp21, align 8, !tbaa !18
  %derivative_38 = getelementptr inbounds nuw %"class.QuantLib::GFunctionFactory::GFunctionWithShifts::ObjectiveFunction", ptr %this1, i32 0, i32 3
  %39 = load double, ptr %derivative_38, align 8, !tbaa !158
  %neg39 = fneg double %37
  %40 = call double @llvm.fmuladd.f64(double %neg39, double %38, double %39)
  store double %40, ptr %derivative_38, align 8, !tbaa !158
  %41 = load double, ptr %result, align 8, !tbaa !18
  call void @llvm.lifetime.end.p0(i64 8, ptr %temp21) #18
  call void @llvm.lifetime.end.p0(i64 8, ptr %result) #18
  ret double %41
}