; Function Attrs: mustprogress nofree nounwind memory(readwrite, inaccessiblemem: write) uwtable
define noundef double @_ZNK8QuantLib16GFunctionFactory19GFunctionWithShifts17ObjectiveFunctionclERKd(ptr nocapture noundef nonnull align 8 dereferenceable(32) %this, ptr nocapture noundef nonnull readonly align 8 dereferenceable(8) %x) unnamed_addr #21 align 2 {
entry:
  %derivative_ = getelementptr inbounds nuw i8, ptr %this, i64 24
  store double 0.000000e+00, ptr %derivative_, align 8, !tbaa !269
  %o_ = getelementptr inbounds nuw i8, ptr %this, i64 8
  %0 = load ptr, ptr %o_, align 8, !tbaa !264
  %accruals_ = getelementptr inbounds nuw i8, ptr %0, i64 48
  %_M_finish.i = getelementptr inbounds nuw i8, ptr %0, i64 56
  %1 = load ptr, ptr %_M_finish.i, align 8, !tbaa !232
  %2 = load ptr, ptr %accruals_, align 8, !tbaa !231
  %cmp19.not = icmp eq ptr %1, %2
  br i1 %cmp19.not, label %for.cond.cleanup, label %for.body.lr.ph

for.body.lr.ph:                                   ; preds = %entry
  %sub.ptr.lhs.cast.i = ptrtoint ptr %1 to i64
  %sub.ptr.rhs.cast.i = ptrtoint ptr %2 to i64
  %sub.ptr.sub.i = sub i64 %sub.ptr.lhs.cast.i, %sub.ptr.rhs.cast.i
  %sub.ptr.div.i = ashr exact i64 %sub.ptr.sub.i, 3
  %swapPaymentDiscounts_ = getelementptr inbounds nuw i8, ptr %0, i64 72
  %3 = load ptr, ptr %swapPaymentDiscounts_, align 8, !tbaa !231
  %shapedSwapPaymentTimes_ = getelementptr inbounds nuw i8, ptr %0, i64 24
  %4 = load ptr, ptr %shapedSwapPaymentTimes_, align 8, !tbaa !231
  %umax = tail call i64 @llvm.umax.i64(i64 %sub.ptr.div.i, i64 1)
  br label %for.body

for.cond.cleanup:                                 ; preds = %for.body, %entry
  %5 = phi double [ 0.000000e+00, %entry ], [ %19, %for.body ]
  %result.0.lcssa = phi double [ 0.000000e+00, %entry ], [ %add, %for.body ]
  %Rs_ = getelementptr inbounds nuw i8, ptr %this, i64 16
  %6 = load double, ptr %Rs_, align 8, !tbaa !260
  %mul17 = fmul double %result.0.lcssa, %6
  %mul20 = fmul double %6, %5
  store double %mul20, ptr %derivative_, align 8, !tbaa !269
  %_M_finish.i.i = getelementptr inbounds nuw i8, ptr %0, i64 80
  %7 = load ptr, ptr %_M_finish.i.i, align 8, !tbaa !3
  %add.ptr.i.i = getelementptr inbounds i8, ptr %7, i64 -8
  %8 = load double, ptr %add.ptr.i.i, align 8, !tbaa !240
  %_M_finish.i.i12 = getelementptr inbounds nuw i8, ptr %0, i64 32
  %9 = load ptr, ptr %_M_finish.i.i12, align 8, !tbaa !3
  %add.ptr.i.i13 = getelementptr inbounds i8, ptr %9, i64 -8
  %10 = load double, ptr %add.ptr.i.i13, align 8, !tbaa !240
  %fneg28 = fneg double %10
  %11 = load double, ptr %x, align 8, !tbaa !240
  %mul29 = fmul double %11, %fneg28
  %call30 = tail call double @exp(double noundef %mul29) #35, !tbaa !58
  %mul31 = fmul double %8, %call30
  %discountAtStart_ = getelementptr inbounds nuw i8, ptr %0, i64 96
  %12 = load double, ptr %discountAtStart_, align 8, !tbaa !250
  %sub = fsub double %mul31, %12
  %add33 = fadd double %mul17, %sub
  %13 = tail call double @llvm.fmuladd.f64(double %fneg28, double %mul31, double %mul20)
  store double %13, ptr %derivative_, align 8, !tbaa !269
  ret double %add33

for.body:                                         ; preds = %for.body.lr.ph, %for.body
  %14 = phi double [ 0.000000e+00, %for.body.lr.ph ], [ %19, %for.body ]
  %result.021 = phi double [ 0.000000e+00, %for.body.lr.ph ], [ %add, %for.body ]
  %i.020 = phi i64 [ 0, %for.body.lr.ph ], [ %inc, %for.body ]
  %add.ptr.i = getelementptr inbounds nuw double, ptr %2, i64 %i.020
  %15 = load double, ptr %add.ptr.i, align 8, !tbaa !240
  %add.ptr.i16 = getelementptr inbounds nuw double, ptr %3, i64 %i.020
  %16 = load double, ptr %add.ptr.i16, align 8, !tbaa !240
  %mul = fmul double %15, %16
  %add.ptr.i17 = getelementptr inbounds nuw double, ptr %4, i64 %i.020
  %17 = load double, ptr %add.ptr.i17, align 8, !tbaa !240
  %fneg = fneg double %17
  %18 = load double, ptr %x, align 8, !tbaa !240
  %mul9 = fmul double %18, %fneg
  %call10 = tail call double @exp(double noundef %mul9) #35, !tbaa !58
  %mul11 = fmul double %mul, %call10
  %add = fadd double %result.021, %mul11
  %19 = tail call double @llvm.fmuladd.f64(double %fneg, double %mul11, double %14)
  store double %19, ptr %derivative_, align 8, !tbaa !269
  %inc = add nuw i64 %i.020, 1
  %exitcond.not = icmp eq i64 %inc, %umax
  br i1 %exitcond.not, label %for.cond.cleanup, label %for.body, !llvm.loop !270
}